target datalayout = "e-m:e-p270:32:32-p271:32:32-p272:64:64-i64:64-i128:128-f80:128-n8:16:32:64-S128"
target triple = "x86_64-unknown-linux-gnu"

%"class.proxygen::StructuredHeadersBuffer" = type { %"class.folly::Range", %"class.folly::Range" }
%"class.folly::Range" = type { ptr, ptr }
%"class.std::exception" = type { ptr }
%"struct.std::__cow_string" = type { %union.anon.36 }
%union.anon.36 = type { ptr }
%"class.std::logic_error" = type { %"class.std::exception", %"struct.std::__cow_string" }
%"class.std::out_of_range" = type { %"class.std::logic_error" }

@.str.28 = private unnamed_addr constant [19 x i8] c"index out of range\00", align 1
@_ZTISt12out_of_range = external constant ptr
@_ZTVSt12out_of_range = external unnamed_addr constant { [5 x ptr] }, align 8

; Function Attrs: mustprogress nounwind uwtable
define linkonce_odr void @_ZNSt12out_of_rangeC2EOS_(ptr noundef nonnull align 8 dereferenceable(16) %this, ptr noundef nonnull align 8 dereferenceable(16) %0) unnamed_addr #2 comdat align 2 {
entry:
  %this.addr = alloca ptr, align 8
  %.addr = alloca ptr, align 8
  store ptr %this, ptr %this.addr, align 8
  store ptr %0, ptr %.addr, align 8
  %this1 = load ptr, ptr %this.addr, align 8
  %1 = load ptr, ptr %.addr, align 8
  call void @_ZNSt11logic_errorC2EOS_(ptr noundef nonnull align 8 dereferenceable(16) %this1, ptr noundef nonnull align 8 dereferenceable(16) %1) #3
  store ptr getelementptr inbounds ({ [5 x ptr] }, ptr @_ZTVSt12out_of_range, i32 0, i32 0, i32 2), ptr %this1, align 8
  ret void
}

; Function Attrs: cold mustprogress noreturn uwtable
define linkonce_odr void @_ZN5folly15throw_exceptionISt12out_of_rangeEEvOT_(ptr noundef nonnull align 8 dereferenceable(16) %ex) #16 comdat {
entry:
  %ex.addr = alloca ptr, align 8
  store ptr %ex, ptr %ex.addr, align 8
  %exception = call ptr @__cxa_allocate_exception(i64 16) #3
  %0 = load ptr, ptr %ex.addr, align 8
  call void @_ZNSt12out_of_rangeC2EOS_(ptr noundef nonnull align 8 dereferenceable(16) %exception, ptr noundef nonnull align 8 dereferenceable(16) %0) #3
  call void @__cxa_throw(ptr %exception, ptr @_ZTISt12out_of_range, ptr @_ZNSt12out_of_rangeD1Ev) #23
  unreachable
}

; Function Attrs: cold mustprogress noreturn uwtable
define linkonce_odr void @_ZN5folly6detail16throw_exception_ISt12out_of_rangeJPKcEEEvDpT0_(ptr noundef %args) #16 comdat personality ptr @__gxx_personality_v0 {
entry:
  %args.addr = alloca ptr, align 8
  %ref.tmp = alloca %"class.std::out_of_range", align 8
  %exn.slot = alloca ptr, align 8
  %ehselector.slot = alloca i32, align 4
  store ptr %args, ptr %args.addr, align 8
  %0 = load ptr, ptr %args.addr, align 8
  call void @_ZNSt12out_of_rangeC1EPKc(ptr noundef nonnull align 8 dereferenceable(16) %ref.tmp, ptr noundef %0)
  invoke void @_ZN5folly15throw_exceptionISt12out_of_rangeEEvOT_(ptr noundef nonnull align 8 dereferenceable(16) %ref.tmp) #24
          to label %invoke.cont unwind label %lpad

invoke.cont:                                      ; preds = %entry
  unreachable

lpad:                                             ; preds = %entry
  %1 = landingpad { ptr, i32 }
          cleanup
  %2 = extractvalue { ptr, i32 } %1, 0
  store ptr %2, ptr %exn.slot, align 8
  %3 = extractvalue { ptr, i32 } %1, 1
  store i32 %3, ptr %ehselector.slot, align 4
  call void @_ZNSt12out_of_rangeD1Ev(ptr noundef nonnull align 8 dereferenceable(16) %ref.tmp) #3
  br label %eh.resume

eh.resume:                                        ; preds = %lpad
  %exn = load ptr, ptr %exn.slot, align 8
  %sel = load i32, ptr %ehselector.slot, align 4
  %lpad.val = insertvalue { ptr, i32 } poison, ptr %exn, 0
  %lpad.val1 = insertvalue { ptr, i32 } %lpad.val, i32 %sel, 1
  resume { ptr, i32 } %lpad.val1
}

; Function Attrs: mustprogress nounwind uwtable
define linkonce_odr noundef i64 @_ZNK5folly5RangeIPKcE4sizeEv(ptr noundef nonnull align 8 dereferenceable(16) %this) #2 comdat align 2 {
entry:
  %this.addr = alloca ptr, align 8
  store ptr %this, ptr %this.addr, align 8
  %this1 = load ptr, ptr %this.addr, align 8
  %e_ = getelementptr inbounds %"class.folly::Range", ptr %this1, i32 0, i32 1
  %0 = load ptr, ptr %e_, align 8
  %b_ = getelementptr inbounds %"class.folly::Range", ptr %this1, i32 0, i32 0
  %1 = load ptr, ptr %b_, align 8
  %sub.ptr.lhs.cast = ptrtoint ptr %0 to i64
  %sub.ptr.rhs.cast = ptrtoint ptr %1 to i64
  %sub.ptr.sub = sub i64 %sub.ptr.lhs.cast, %sub.ptr.rhs.cast
  ret i64 %sub.ptr.sub
}

; Function Attrs: mustprogress uwtable
define linkonce_odr void @_ZN5folly5RangeIPKcE7advanceEm(ptr noundef nonnull align 8 dereferenceable(16) %this, i64 noundef %n) #1 comdat align 2 {
entry:
  %args.addr.i = alloca ptr, align 8
  %this.addr = alloca ptr, align 8
  %n.addr = alloca i64, align 8
  store ptr %this, ptr %this.addr, align 8
  store i64 %n, ptr %n.addr, align 8
  %this1 = load ptr, ptr %this.addr, align 8
  %0 = load i64, ptr %n.addr, align 8
  %call = call noundef i64 @_ZNK5folly5RangeIPKcE4sizeEv(ptr noundef nonnull align 8 dereferenceable(16) %this1)
  %cmp = icmp ugt i64 %0, %call
  br i1 %cmp, label %if.then, label %if.end

if.then:                                          ; preds = %entry
  store ptr @.str.28, ptr %args.addr.i, align 8
  %1 = load ptr, ptr %args.addr.i, align 8
  call void @_ZN5folly6detail16throw_exception_ISt12out_of_rangeJPKcEEEvDpT0_(ptr noundef %1) #24
  unreachable

_ZN5folly15throw_exceptionISt12out_of_rangeJRA19_KcEEEvDpOT0_.exit: ; No predecessors!
  unreachable

if.end:                                           ; preds = %entry
  %2 = load i64, ptr %n.addr, align 8
  %b_ = getelementptr inbounds %"class.folly::Range", ptr %this1, i32 0, i32 0
  %3 = load ptr, ptr %b_, align 8
  %add.ptr = getelementptr inbounds i8, ptr %3, i64 %2
  store ptr %add.ptr, ptr %b_, align 8
  ret void
}

; Function Attrs: mustprogress nounwind uwtable
define linkonce_odr noundef ptr @_ZNK5folly5RangeIPKcE3endEv(ptr noundef nonnull align 8 dereferenceable(16) %this) #2 comdat align 2 {
entry:
  %this.addr = alloca ptr, align 8
  store ptr %this, ptr %this.addr, align 8
  %this1 = load ptr, ptr %this.addr, align 8
  %e_ = getelementptr inbounds %"class.folly::Range", ptr %this1, i32 0, i32 1
  %0 = load ptr, ptr %e_, align 8
  ret ptr %0
}

; Function Attrs: mustprogress nounwind uwtable
define linkonce_odr noundef ptr @_ZNK5folly5RangeIPKcE5beginEv(ptr noundef nonnull align 8 dereferenceable(16) %this) #2 comdat align 2 {
entry:
  %this.addr = alloca ptr, align 8
  store ptr %this, ptr %this.addr, align 8
  %this1 = load ptr, ptr %this.addr, align 8
  %b_ = getelementptr inbounds %"class.folly::Range", ptr %this1, i32 0, i32 0
  %0 = load ptr, ptr %b_, align 8
  ret ptr %0
}

; Function Attrs: mustprogress uwtable
define void @_ZN8proxygen23StructuredHeadersBuffer13advanceCursorEv(ptr noundef nonnull align 8 dereferenceable(32) %this) #1 align 2 {
entry:
  %this.addr = alloca ptr, align 8
  store ptr %this, ptr %this.addr, align 8
  %this1 = load ptr, ptr %this.addr, align 8
  %content_ = getelementptr inbounds %"class.proxygen::StructuredHeadersBuffer", ptr %this1, i32 0, i32 0
  call void @_ZN5folly5RangeIPKcE7advanceEm(ptr noundef nonnull align 8 dereferenceable(16) %content_, i64 noundef 1)
  ret void
}

; Function Attrs: mustprogress uwtable
define noundef signext i8 @_ZN8proxygen23StructuredHeadersBuffer4peekEv(ptr noundef nonnull align 8 dereferenceable(32) %this) #1 align 2 {
entry:
  %this.addr = alloca ptr, align 8
  store ptr %this, ptr %this.addr, align 8
  %this1 = load ptr, ptr %this.addr, align 8
  %content_ = getelementptr inbounds %"class.proxygen::StructuredHeadersBuffer", ptr %this1, i32 0, i32 0
  %call = call noundef ptr @_ZNK5folly5RangeIPKcE5beginEv(ptr noundef nonnull align 8 dereferenceable(16) %content_)
  %0 = load i8, ptr %call, align 1
  ret i8 %0
}

; Function Attrs: mustprogress uwtable
define noundef zeroext i1 @_ZN8proxygen23StructuredHeadersBuffer7isEmptyEv(ptr noundef nonnull align 8 dereferenceable(32) %this) #1 align 2 {
entry:
  %this.addr = alloca ptr, align 8
  store ptr %this, ptr %this.addr, align 8
  %this1 = load ptr, ptr %this.addr, align 8
  %content_ = getelementptr inbounds %"class.proxygen::StructuredHeadersBuffer", ptr %this1, i32 0, i32 0
  %call = call noundef ptr @_ZNK5folly5RangeIPKcE5beginEv(ptr noundef nonnull align 8 dereferenceable(16) %content_)
  %content_2 = getelementptr inbounds %"class.proxygen::StructuredHeadersBuffer", ptr %this1, i32 0, i32 0
  %call3 = call noundef ptr @_ZNK5folly5RangeIPKcE3endEv(ptr noundef nonnull align 8 dereferenceable(16) %content_2)
  %cmp = icmp eq ptr %call, %call3
  ret i1 %cmp
}

; Function Attrs: mustprogress uwtable
define noundef zeroext i8 @_ZN8proxygen23StructuredHeadersBuffer24removeOptionalWhitespaceEv(ptr noundef nonnull align 8 dereferenceable(32) %this) #1 align 2 {
entry:
  %this.addr = alloca ptr, align 8
  store ptr %this, ptr %this.addr, align 8
  %this1 = load ptr, ptr %this.addr, align 8
  br label %while.cond

while.cond:                                       ; preds = %while.body, %entry
  %call = call noundef zeroext i1 @_ZN8proxygen23StructuredHeadersBuffer7isEmptyEv(ptr noundef nonnull align 8 dereferenceable(32) %this1)
  br i1 %call, label %land.end, label %land.rhs

land.rhs:                                         ; preds = %while.cond
  %call2 = call noundef signext i8 @_ZN8proxygen23StructuredHeadersBuffer4peekEv(ptr noundef nonnull align 8 dereferenceable(32) %this1)
  %conv = sext i8 %call2 to i32
  %cmp = icmp eq i32 %conv, 32
  br i1 %cmp, label %lor.end, label %lor.rhs

lor.rhs:                                          ; preds = %land.rhs
  %call3 = call noundef signext i8 @_ZN8proxygen23StructuredHeadersBuffer4peekEv(ptr noundef nonnull align 8 dereferenceable(32) %this1)
  %conv4 = sext i8 %call3 to i32
  %cmp5 = icmp eq i32 %conv4, 9
  br label %lor.end

lor.end:                                          ; preds = %lor.rhs, %land.rhs
  %0 = phi i1 [ true, %land.rhs ], [ %cmp5, %lor.rhs ]
  br label %land.end

land.end:                                         ; preds = %lor.end, %while.cond
  %1 = phi i1 [ false, %while.cond ], [ %0, %lor.end ]
  br i1 %1, label %while.body, label %while.end

while.body:                                       ; preds = %land.end
  call void @_ZN8proxygen23StructuredHeadersBuffer13advanceCursorEv(ptr noundef nonnull align 8 dereferenceable(32) %this1)
  br label %while.cond, !llvm.loop !4

while.end:                                        ; preds = %land.end
  ret i8 0
}

; Function Attrs: mustprogress uwtable
define noundef zeroext i8 @_ZN8proxygen23StructuredHeadersBuffer9parseItemERNS_17StructuredHeaders20StructuredHeaderItemE(ptr noundef nonnull align 8 dereferenceable(32) %this, ptr noundef nonnull align 8 dereferenceable(48) %result) #1 align 2 {
entry:
  %retval = alloca i8, align 1
  %this.addr = alloca ptr, align 8
  %result.addr = alloca ptr, align 8
  %ref.tmp = alloca i8, align 1
  %firstCharacter = alloca i8, align 1
  %ref.tmp25 = alloca i8, align 1
  store ptr %this, ptr %this.addr, align 8
  store ptr %result, ptr %result.addr, align 8
  %this1 = load ptr, ptr %this.addr, align 8
  %call = call noundef zeroext i8 @_ZN8proxygen23StructuredHeadersBuffer24removeOptionalWhitespaceEv(ptr noundef nonnull align 8 dereferenceable(32) %this1)
  %call2 = call noundef zeroext i1 @_ZN8proxygen23StructuredHeadersBuffer7isEmptyEv(ptr noundef nonnull align 8 dereferenceable(32) %this1)
  br i1 %call2, label %if.then, label %if.else

if.then:                                          ; preds = %entry
  store i8 4, ptr %ref.tmp, align 1
  %call3 = call noundef zeroext i8 @_ZN8proxygen23StructuredHeadersBuffer17handleDecodeErrorERKNS_17StructuredHeaders11DecodeErrorE(ptr noundef nonnull align 8 dereferenceable(32) %this1, ptr noundef nonnull align 1 dereferenceable(1) %ref.tmp)
  store i8 %call3, ptr %retval, align 1
  br label %return

if.else:                                          ; preds = %entry
  %call4 = call noundef signext i8 @_ZN8proxygen23StructuredHeadersBuffer4peekEv(ptr noundef nonnull align 8 dereferenceable(32) %this1)
  store i8 %call4, ptr %firstCharacter, align 1
  %0 = load i8, ptr %firstCharacter, align 1
  %conv = sext i8 %0 to i32
  %cmp = icmp eq i32 %conv, 34
  br i1 %cmp, label %if.then5, label %if.else7

if.then5:                                         ; preds = %if.else
  %1 = load ptr, ptr %result.addr, align 8
  %call6 = call noundef zeroext i8 @_ZN8proxygen23StructuredHeadersBuffer11parseStringERNS_17StructuredHeaders20StructuredHeaderItemE(ptr noundef nonnull align 8 dereferenceable(32) %this1, ptr noundef nonnull align 8 dereferenceable(48) %1)
  store i8 %call6, ptr %retval, align 1
  br label %return

if.else7:                                         ; preds = %if.else
  %2 = load i8, ptr %firstCharacter, align 1
  %conv8 = sext i8 %2 to i32
  %cmp9 = icmp eq i32 %conv8, 42
  br i1 %cmp9, label %if.then10, label %if.else12

if.then10:                                        ; preds = %if.else7
  %3 = load ptr, ptr %result.addr, align 8
  %call11 = call noundef zeroext i8 @_ZN8proxygen23StructuredHeadersBuffer18parseBinaryContentERNS_17StructuredHeaders20StructuredHeaderItemE(ptr noundef nonnull align 8 dereferenceable(32) %this1, ptr noundef nonnull align 8 dereferenceable(48) %3)
  store i8 %call11, ptr %retval, align 1
  br label %return

if.else12:                                        ; preds = %if.else7
  %4 = load i8, ptr %firstCharacter, align 1
  %conv13 = sext i8 %4 to i32
  %call14 = call i32 @isdigit(i32 noundef %conv13) #21
  %tobool = icmp ne i32 %call14, 0
  br i1 %tobool, label %if.then17, label %lor.lhs.false

lor.lhs.false:                                    ; preds = %if.else12
  %5 = load i8, ptr %firstCharacter, align 1
  %conv15 = sext i8 %5 to i32
  %cmp16 = icmp eq i32 %conv15, 45
  br i1 %cmp16, label %if.then17, label %if.else19

if.then17:                                        ; preds = %lor.lhs.false, %if.else12
  %6 = load ptr, ptr %result.addr, align 8
  %call18 = call noundef zeroext i8 @_ZN8proxygen23StructuredHeadersBuffer11parseNumberERNS_17StructuredHeaders20StructuredHeaderItemE(ptr noundef nonnull align 8 dereferenceable(32) %this1, ptr noundef nonnull align 8 dereferenceable(48) %6)
  store i8 %call18, ptr %retval, align 1
  br label %return

if.else19:                                        ; preds = %lor.lhs.false
  %7 = load i8, ptr %firstCharacter, align 1
  %conv20 = sext i8 %7 to i32
  %cmp21 = icmp eq i32 %conv20, 63
  br i1 %cmp21, label %if.then22, label %if.else24

if.then22:                                        ; preds = %if.else19
  %8 = load ptr, ptr %result.addr, align 8
  %call23 = call noundef zeroext i8 @_ZN8proxygen23StructuredHeadersBuffer12parseBooleanERNS_17StructuredHeaders20StructuredHeaderItemE(ptr noundef nonnull align 8 dereferenceable(32) %this1, ptr noundef nonnull align 8 dereferenceable(48) %8)
  store i8 %call23, ptr %retval, align 1
  br label %return

if.else24:                                        ; preds = %if.else19
  store i8 2, ptr %ref.tmp25, align 1
  %call26 = call noundef zeroext i8 @_ZN8proxygen23StructuredHeadersBuffer17handleDecodeErrorERKNS_17StructuredHeaders11DecodeErrorE(ptr noundef nonnull align 8 dereferenceable(32) %this1, ptr noundef nonnull align 1 dereferenceable(1) %ref.tmp25)
  store i8 %call26, ptr %retval, align 1
  br label %return

return:                                           ; preds = %if.else24, %if.then22, %if.then17, %if.then10, %if.then5, %if.then
  %9 = load i8, ptr %retval, align 1
  ret i8 %9
}