; Function Attrs: mustprogress uwtable
define noundef zeroext i8 @_ZN8proxygen23StructuredHeadersBuffer9parseItemERNS_17StructuredHeaders20StructuredHeaderItemE(ptr nocapture noundef nonnull align 8 dereferenceable(32) %this, ptr noundef nonnull align 8 dereferenceable(48) %result) local_unnamed_addr #0 align 2 {
entry:
  %ref.tmp = alloca i8, align 1
  %ref.tmp25 = alloca i8, align 1
  %e_.i.i.i = getelementptr inbounds i8, ptr %this, i64 8
  %0 = load ptr, ptr %e_.i.i.i, align 8
  %this.promoted.i = load ptr, ptr %this, align 8
  %cmp.i2.i = icmp eq ptr %this.promoted.i, %0
  br i1 %cmp.i2.i, label %if.then, label %land.rhs.i

land.rhs.i:                                       ; preds = %entry, %_ZN8proxygen23StructuredHeadersBuffer13advanceCursorEv.exit.i
  %add.ptr.i.i13.i = phi ptr [ %add.ptr.i.i.i, %_ZN8proxygen23StructuredHeadersBuffer13advanceCursorEv.exit.i ], [ %this.promoted.i, %entry ]
  %1 = load i8, ptr %add.ptr.i.i13.i, align 1
  switch i8 %1, label %_ZN8proxygen23StructuredHeadersBuffer24removeOptionalWhitespaceEv.exit [
    i8 32, label %_ZN8proxygen23StructuredHeadersBuffer13advanceCursorEv.exit.i
    i8 9, label %_ZN8proxygen23StructuredHeadersBuffer13advanceCursorEv.exit.i
  ]

_ZN8proxygen23StructuredHeadersBuffer13advanceCursorEv.exit.i: ; preds = %land.rhs.i, %land.rhs.i
  %add.ptr.i.i.i = getelementptr inbounds i8, ptr %add.ptr.i.i13.i, i64 1
  store ptr %add.ptr.i.i.i, ptr %this, align 8
  %cmp.i.i = icmp eq ptr %add.ptr.i.i.i, %0
  br i1 %cmp.i.i, label %if.then, label %land.rhs.i, !llvm.loop !9

_ZN8proxygen23StructuredHeadersBuffer24removeOptionalWhitespaceEv.exit: ; preds = %land.rhs.i
  %cmp.i = icmp eq ptr %add.ptr.i.i13.i, %0
  br i1 %cmp.i, label %if.then, label %if.else

if.then:                                          ; preds = %_ZN8proxygen23StructuredHeadersBuffer13advanceCursorEv.exit.i, %entry, %_ZN8proxygen23StructuredHeadersBuffer24removeOptionalWhitespaceEv.exit
  store i8 4, ptr %ref.tmp, align 1
  %call3 = call noundef zeroext i8 @_ZN8proxygen23StructuredHeadersBuffer17handleDecodeErrorERKNS_17StructuredHeaders11DecodeErrorE(ptr noundef nonnull align 8 dereferenceable(32) %this, ptr noundef nonnull align 1 dereferenceable(1) %ref.tmp)
  br label %return

if.else:                                          ; preds = %_ZN8proxygen23StructuredHeadersBuffer24removeOptionalWhitespaceEv.exit
  %2 = load i8, ptr %add.ptr.i.i13.i, align 1
  switch i8 %2, label %if.else12 [
    i8 34, label %if.then5
    i8 42, label %if.then10
  ]

if.then5:                                         ; preds = %if.else
  %call6 = tail call noundef zeroext i8 @_ZN8proxygen23StructuredHeadersBuffer11parseStringERNS_17StructuredHeaders20StructuredHeaderItemE(ptr noundef nonnull align 8 dereferenceable(32) %this, ptr noundef nonnull align 8 dereferenceable(48) %result)
  br label %return

if.then10:                                        ; preds = %if.else
  %call11 = tail call noundef zeroext i8 @_ZN8proxygen23StructuredHeadersBuffer18parseBinaryContentERNS_17StructuredHeaders20StructuredHeaderItemE(ptr noundef nonnull align 8 dereferenceable(32) %this, ptr noundef nonnull align 8 dereferenceable(48) %result)
  br label %return

if.else12:                                        ; preds = %if.else
  %conv = sext i8 %2 to i32
  %isdigittmp = add nsw i32 %conv, -48
  %isdigit = icmp ult i32 %isdigittmp, 10
  %cmp16 = icmp eq i8 %2, 45
  %or.cond = or i1 %cmp16, %isdigit
  br i1 %or.cond, label %if.then17, label %if.else19

if.then17:                                        ; preds = %if.else12
  %call18 = tail call noundef zeroext i8 @_ZN8proxygen23StructuredHeadersBuffer11parseNumberERNS_17StructuredHeaders20StructuredHeaderItemE(ptr noundef nonnull align 8 dereferenceable(32) %this, ptr noundef nonnull align 8 dereferenceable(48) %result)
  br label %return

if.else19:                                        ; preds = %if.else12
  %cmp21 = icmp eq i8 %2, 63
  br i1 %cmp21, label %if.then22, label %if.else24

if.then22:                                        ; preds = %if.else19
  %call23 = tail call noundef zeroext i8 @_ZN8proxygen23StructuredHeadersBuffer12parseBooleanERNS_17StructuredHeaders20StructuredHeaderItemE(ptr noundef nonnull align 8 dereferenceable(32) %this, ptr noundef nonnull align 8 dereferenceable(48) %result)
  br label %return

if.else24:                                        ; preds = %if.else19
  store i8 2, ptr %ref.tmp25, align 1
  %call26 = call noundef zeroext i8 @_ZN8proxygen23StructuredHeadersBuffer17handleDecodeErrorERKNS_17StructuredHeaders11DecodeErrorE(ptr noundef nonnull align 8 dereferenceable(32) %this, ptr noundef nonnull align 1 dereferenceable(1) %ref.tmp25)
  br label %return

return:                                           ; preds = %if.else24, %if.then22, %if.then17, %if.then10, %if.then5, %if.then
  %retval.0 = phi i8 [ %call3, %if.then ], [ %call6, %if.then5 ], [ %call11, %if.then10 ], [ %call18, %if.then17 ], [ %call23, %if.then22 ], [ %call26, %if.else24 ]
  ret i8 %retval.0
}